; Function Attrs: mustprogress uwtable
define hidden void @_ZN21pattern_inference_cfg18reset_pre_patternsEv(ptr nocapture noundef nonnull readonly align 8 dereferenceable(504) %this) local_unnamed_addr #3 align 2 personality ptr @__gxx_personality_v0 {
entry:
  %m_pre_patterns = getelementptr inbounds i8, ptr %this, i64 288
  %0 = load ptr, ptr %m_pre_patterns, align 8
  %cmp.i.i = icmp eq ptr %0, null
  br i1 %cmp.i.i, label %_ZN6vectorIPN21pattern_inference_cfg11pre_patternELb0EjE5resetEv.exit, label %_ZN6vectorIPN21pattern_inference_cfg11pre_patternELb0EjE3endEv.exit

_ZN6vectorIPN21pattern_inference_cfg11pre_patternELb0EjE3endEv.exit: ; preds = %entry
  %arrayidx.i.i = getelementptr inbounds i8, ptr %0, i64 -4
  %1 = load i32, ptr %arrayidx.i.i, align 4
  %2 = zext i32 %1 to i64
  %add.ptr.i = getelementptr inbounds ptr, ptr %0, i64 %2
  %cmp.not3.i = icmp eq i32 %1, 0
  br i1 %cmp.not3.i, label %if.then.i, label %for.body.i

for.body.i:                                       ; preds = %_ZN6vectorIPN21pattern_inference_cfg11pre_patternELb0EjE3endEv.exit, %_ZN11delete_procIN21pattern_inference_cfg11pre_patternEEclEPS1_.exit.i
  %__first.addr.04.i = phi ptr [ %incdec.ptr.i, %_ZN11delete_procIN21pattern_inference_cfg11pre_patternEEclEPS1_.exit.i ], [ %0, %_ZN6vectorIPN21pattern_inference_cfg11pre_patternELb0EjE3endEv.exit ]
  %3 = load ptr, ptr %__first.addr.04.i, align 8
  %tobool.not.i.i = icmp eq ptr %3, null
  br i1 %tobool.not.i.i, label %_ZN11delete_procIN21pattern_inference_cfg11pre_patternEEclEPS1_.exit.i, label %if.end.i.i.i

if.end.i.i.i:                                     ; preds = %for.body.i
  %m_free_vars.i.i.i.i = getelementptr inbounds i8, ptr %3, i64 8
  %4 = load ptr, ptr %m_free_vars.i.i.i.i, align 8
  %tobool.not.i.i.i.i.i.i.i.i = icmp eq ptr %4, null
  br i1 %tobool.not.i.i.i.i.i.i.i.i, label %_ZN8uint_setD2Ev.exit.i.i.i.i, label %if.then.i.i.i.i.i.i.i.i

if.then.i.i.i.i.i.i.i.i:                          ; preds = %if.end.i.i.i
  %add.ptr.i.i.i.i.i.i.i.i.i = getelementptr inbounds i8, ptr %4, i64 -8
  invoke void @_ZN6memory10deallocateEPv(ptr noundef nonnull %add.ptr.i.i.i.i.i.i.i.i.i)
          to label %_ZN8uint_setD2Ev.exit.i.i.i.i unwind label %terminate.lpad.i.i.i.i.i.i.i

terminate.lpad.i.i.i.i.i.i.i:                     ; preds = %if.then.i.i.i.i.i.i.i.i
  %5 = landingpad { ptr, i32 }
          catch ptr null
  %6 = extractvalue { ptr, i32 } %5, 0
  tail call void @__clang_call_terminate(ptr %6) #20
  unreachable

_ZN8uint_setD2Ev.exit.i.i.i.i:                    ; preds = %if.then.i.i.i.i.i.i.i.i, %if.end.i.i.i
  %7 = load ptr, ptr %3, align 8
  %tobool.not.i.i.i.i.i.i.i = icmp eq ptr %7, null
  br i1 %tobool.not.i.i.i.i.i.i.i, label %_Z7deallocIN21pattern_inference_cfg11pre_patternEEvPT_.exit.i.i, label %if.then.i.i.i.i.i.i.i

if.then.i.i.i.i.i.i.i:                            ; preds = %_ZN8uint_setD2Ev.exit.i.i.i.i
  %add.ptr.i.i.i.i.i.i.i.i = getelementptr inbounds i8, ptr %7, i64 -8
  invoke void @_ZN6memory10deallocateEPv(ptr noundef nonnull %add.ptr.i.i.i.i.i.i.i.i)
          to label %_Z7deallocIN21pattern_inference_cfg11pre_patternEEvPT_.exit.i.i unwind label %terminate.lpad.i.i.i.i.i.i

terminate.lpad.i.i.i.i.i.i:                       ; preds = %if.then.i.i.i.i.i.i.i
  %8 = landingpad { ptr, i32 }
          catch ptr null
  %9 = extractvalue { ptr, i32 } %8, 0
  tail call void @__clang_call_terminate(ptr %9) #20
  unreachable

_Z7deallocIN21pattern_inference_cfg11pre_patternEEvPT_.exit.i.i: ; preds = %if.then.i.i.i.i.i.i.i, %_ZN8uint_setD2Ev.exit.i.i.i.i
  tail call void @_ZN6memory10deallocateEPv(ptr noundef nonnull %3)
  br label %_ZN11delete_procIN21pattern_inference_cfg11pre_patternEEclEPS1_.exit.i

_ZN11delete_procIN21pattern_inference_cfg11pre_patternEEclEPS1_.exit.i: ; preds = %_Z7deallocIN21pattern_inference_cfg11pre_patternEEvPT_.exit.i.i, %for.body.i
  %incdec.ptr.i = getelementptr inbounds i8, ptr %__first.addr.04.i, i64 8
  %cmp.not.i = icmp eq ptr %incdec.ptr.i, %add.ptr.i
  br i1 %cmp.not.i, label %_ZSt8for_eachIPPN21pattern_inference_cfg11pre_patternE11delete_procIS1_EET0_T_S7_S6_.exit, label %for.body.i, !llvm.loop !41

_ZSt8for_eachIPPN21pattern_inference_cfg11pre_patternE11delete_procIS1_EET0_T_S7_S6_.exit: ; preds = %_ZN11delete_procIN21pattern_inference_cfg11pre_patternEEclEPS1_.exit.i
  %.pre = load ptr, ptr %m_pre_patterns, align 8
  %tobool.not.i = icmp eq ptr %.pre, null
  br i1 %tobool.not.i, label %_ZN6vectorIPN21pattern_inference_cfg11pre_patternELb0EjE5resetEv.exit, label %if.then.i

if.then.i:                                        ; preds = %_ZN6vectorIPN21pattern_inference_cfg11pre_patternELb0EjE3endEv.exit, %_ZSt8for_eachIPPN21pattern_inference_cfg11pre_patternE11delete_procIS1_EET0_T_S7_S6_.exit
  %10 = phi ptr [ %.pre, %_ZSt8for_eachIPPN21pattern_inference_cfg11pre_patternE11delete_procIS1_EET0_T_S7_S6_.exit ], [ %0, %_ZN6vectorIPN21pattern_inference_cfg11pre_patternELb0EjE3endEv.exit ]
  %arrayidx.i = getelementptr inbounds i8, ptr %10, i64 -4
  store i32 0, ptr %arrayidx.i, align 4
  br label %_ZN6vectorIPN21pattern_inference_cfg11pre_patternELb0EjE5resetEv.exit

_ZN6vectorIPN21pattern_inference_cfg11pre_patternELb0EjE5resetEv.exit: ; preds = %entry, %_ZSt8for_eachIPPN21pattern_inference_cfg11pre_patternE11delete_procIS1_EET0_T_S7_S6_.exit, %if.then.i
  ret void
}